; ModuleID = '8/87.c'
source_filename = "8/87.c"
target datalayout = "e-m:e-p270:32:32-p271:32:32-p272:64:64-i64:64-f80:128-n8:16:32:64-S128"
target triple = "x86_64-pc-linux-gnu"

@.str = private unnamed_addr constant [6 x i8] c"%d %d\00", align 1
@.str.1 = private unnamed_addr constant [3 x i8] c"%d\00", align 1
@.str.2 = private unnamed_addr constant [4 x i8] c"%d \00", align 1
@.str.3 = private unnamed_addr constant [4 x i8] c"%d\0A\00", align 1

; Function Attrs: noinline nounwind uwtable
define dso_local void @main() #0 {
  %1 = alloca i32, align 4
  %2 = alloca i32, align 4
  %3 = alloca [50 x i32], align 16
  %4 = alloca [50 x i32], align 16
  %5 = alloca i32, align 4
  %6 = alloca i32*, align 8
  %7 = alloca i32*, align 8
  %8 = call i32 (i8*, ...) @__isoc99_scanf(i8* getelementptr inbounds ([6 x i8], [6 x i8]* @.str, i64 0, i64 0), i32* %1, i32* %2)
  store i32 0, i32* %5, align 4
  br label %9

9:                                                ; preds = %18, %0
  %10 = load i32, i32* %5, align 4
  %11 = load i32, i32* %1, align 4
  %12 = icmp slt i32 %10, %11
  br i1 %12, label %13, label %21

13:                                               ; preds = %9
  %14 = load i32, i32* %5, align 4
  %15 = sext i32 %14 to i64
  %16 = getelementptr inbounds [50 x i32], [50 x i32]* %3, i64 0, i64 %15
  %17 = call i32 (i8*, ...) @__isoc99_scanf(i8* getelementptr inbounds ([3 x i8], [3 x i8]* @.str.1, i64 0, i64 0), i32* %16)
  br label %18

18:                                               ; preds = %13
  %19 = load i32, i32* %5, align 4
  %20 = add nsw i32 %19, 1
  store i32 %20, i32* %5, align 4
  br label %9

21:                                               ; preds = %9
  store i32 0, i32* %5, align 4
  br label %22

22:                                               ; preds = %31, %21
  %23 = load i32, i32* %5, align 4
  %24 = load i32, i32* %2, align 4
  %25 = icmp slt i32 %23, %24
  br i1 %25, label %26, label %34

26:                                               ; preds = %22
  %27 = load i32, i32* %5, align 4
  %28 = sext i32 %27 to i64
  %29 = getelementptr inbounds [50 x i32], [50 x i32]* %4, i64 0, i64 %28
  %30 = call i32 (i8*, ...) @__isoc99_scanf(i8* getelementptr inbounds ([3 x i8], [3 x i8]* @.str.1, i64 0, i64 0), i32* %29)
  br label %31

31:                                               ; preds = %26
  %32 = load i32, i32* %5, align 4
  %33 = add nsw i32 %32, 1
  store i32 %33, i32* %5, align 4
  br label %22

34:                                               ; preds = %22
  %35 = getelementptr inbounds [50 x i32], [50 x i32]* %3, i64 0, i64 0
  store i32* %35, i32** %6, align 8
  %36 = getelementptr inbounds [50 x i32], [50 x i32]* %4, i64 0, i64 0
  store i32* %36, i32** %7, align 8
  %37 = load i32*, i32** %6, align 8
  %38 = load i32, i32* %1, align 4
  call void @sort(i32* %37, i32 %38)
  %39 = load i32*, i32** %7, align 8
  %40 = load i32, i32* %2, align 4
  call void @sort(i32* %39, i32 %40)
  store i32 0, i32* %5, align 4
  br label %41

41:                                               ; preds = %51, %34
  %42 = load i32, i32* %5, align 4
  %43 = load i32, i32* %1, align 4
  %44 = icmp slt i32 %42, %43
  br i1 %44, label %45, label %54

45:                                               ; preds = %41
  %46 = load i32, i32* %5, align 4
  %47 = sext i32 %46 to i64
  %48 = getelementptr inbounds [50 x i32], [50 x i32]* %3, i64 0, i64 %47
  %49 = load i32, i32* %48, align 4
  %50 = call i32 (i8*, ...) @printf(i8* getelementptr inbounds ([4 x i8], [4 x i8]* @.str.2, i64 0, i64 0), i32 %49)
  br label %51

51:                                               ; preds = %45
  %52 = load i32, i32* %5, align 4
  %53 = add nsw i32 %52, 1
  store i32 %53, i32* %5, align 4
  br label %41

54:                                               ; preds = %41
  store i32 0, i32* %5, align 4
  br label %55

55:                                               ; preds = %66, %54
  %56 = load i32, i32* %5, align 4
  %57 = load i32, i32* %2, align 4
  %58 = sub nsw i32 %57, 1
  %59 = icmp slt i32 %56, %58
  br i1 %59, label %60, label %69

60:                                               ; preds = %55
  %61 = load i32, i32* %5, align 4
  %62 = sext i32 %61 to i64
  %63 = getelementptr inbounds [50 x i32], [50 x i32]* %4, i64 0, i64 %62
  %64 = load i32, i32* %63, align 4
  %65 = call i32 (i8*, ...) @printf(i8* getelementptr inbounds ([4 x i8], [4 x i8]* @.str.2, i64 0, i64 0), i32 %64)
  br label %66

66:                                               ; preds = %60
  %67 = load i32, i32* %5, align 4
  %68 = add nsw i32 %67, 1
  store i32 %68, i32* %5, align 4
  br label %55

69:                                               ; preds = %55
  %70 = load i32, i32* %2, align 4
  %71 = sub nsw i32 %70, 1
  %72 = sext i32 %71 to i64
  %73 = getelementptr inbounds [50 x i32], [50 x i32]* %4, i64 0, i64 %72
  %74 = load i32, i32* %73, align 4
  %75 = call i32 (i8*, ...) @printf(i8* getelementptr inbounds ([4 x i8], [4 x i8]* @.str.3, i64 0, i64 0), i32 %74)
  ret void
}

declare dso_local i32 @__isoc99_scanf(i8*, ...) #1

; Function Attrs: noinline nounwind uwtable
define dso_local void @sort(i32* %0, i32 %1) #0 {
  %3 = alloca i32*, align 8
  %4 = alloca i32, align 4
  %5 = alloca i32, align 4
  %6 = alloca i32, align 4
  %7 = alloca i32, align 4
  store i32* %0, i32** %3, align 8
  store i32 %1, i32* %4, align 4
  %8 = load i32, i32* %4, align 4
  %9 = sub nsw i32 %8, 1
  store i32 %9, i32* %5, align 4
  br label %10

10:                                               ; preds = %58, %2
  %11 = load i32, i32* %5, align 4
  %12 = icmp sgt i32 %11, 0
  br i1 %12, label %13, label %61

13:                                               ; preds = %10
  store i32 0, i32* %6, align 4
  br label %14

14:                                               ; preds = %54, %13
  %15 = load i32, i32* %6, align 4
  %16 = load i32, i32* %5, align 4
  %17 = icmp slt i32 %15, %16
  br i1 %17, label %18, label %57

18:                                               ; preds = %14
  %19 = load i32*, i32** %3, align 8
  %20 = load i32, i32* %6, align 4
  %21 = sext i32 %20 to i64
  %22 = getelementptr inbounds i32, i32* %19, i64 %21
  %23 = load i32, i32* %22, align 4
  %24 = load i32*, i32** %3, align 8
  %25 = load i32, i32* %6, align 4
  %26 = sext i32 %25 to i64
  %27 = getelementptr inbounds i32, i32* %24, i64 %26
  %28 = getelementptr inbounds i32, i32* %27, i64 1
  %29 = load i32, i32* %28, align 4
  %30 = icmp sgt i32 %23, %29
  br i1 %30, label %31, label %53

31:                                               ; preds = %18
  %32 = load i32*, i32** %3, align 8
  %33 = load i32, i32* %6, align 4
  %34 = sext i32 %33 to i64
  %35 = getelementptr inbounds i32, i32* %32, i64 %34
  %36 = load i32, i32* %35, align 4
  store i32 %36, i32* %7, align 4
  %37 = load i32*, i32** %3, align 8
  %38 = load i32, i32* %6, align 4
  %39 = sext i32 %38 to i64
  %40 = getelementptr inbounds i32, i32* %37, i64 %39
  %41 = getelementptr inbounds i32, i32* %40, i64 1
  %42 = load i32, i32* %41, align 4
  %43 = load i32*, i32** %3, align 8
  %44 = load i32, i32* %6, align 4
  %45 = sext i32 %44 to i64
  %46 = getelementptr inbounds i32, i32* %43, i64 %45
  store i32 %42, i32* %46, align 4
  %47 = load i32, i32* %7, align 4
  %48 = load i32*, i32** %3, align 8
  %49 = load i32, i32* %6, align 4
  %50 = sext i32 %49 to i64
  %51 = getelementptr inbounds i32, i32* %48, i64 %50
  %52 = getelementptr inbounds i32, i32* %51, i64 1
  store i32 %47, i32* %52, align 4
  br label %53

53:                                               ; preds = %31, %18
  br label %54

54:                                               ; preds = %53
  %55 = load i32, i32* %6, align 4
  %56 = add nsw i32 %55, 1
  store i32 %56, i32* %6, align 4
  br label %14

57:                                               ; preds = %14
  br label %58

58:                                               ; preds = %57
  %59 = load i32, i32* %5, align 4
  %60 = add nsw i32 %59, -1
  store i32 %60, i32* %5, align 4
  br label %10

61:                                               ; preds = %10
  ret void
}

declare dso_local i32 @printf(i8*, ...) #1


!llvm.module.flags = !{!0}
!llvm.ident = !{!1}

!0 = !{i32 1, !"wchar_size", i32 4}
!1 = !{!"clang version 10.0.0-4ubuntu1 "}
